V(, (03a29b2cc4,06de11b9d7,160627299a,16762d0827,2601c1f2a8,34e2ce7797,4506861e26,6bbe9aef81,7655df1186,78ed8aa04e,791ca5b155,7c21d9d875,833f6f9a2b,846ab6ec7a,85e19ef6ec,8c3da2ba05,9b15222f9e,9e34613164,a918cf6f6a,a97c885bbc,bbf4727ea8,beedddf73e,c7ba33c6ab,e444d6733c,f9701c3845));
p1
.